target datalayout = "e-m:e-p270:32:32-p271:32:32-p272:64:64-i64:64-i128:128-f80:128-n8:16:32:64-S128"
target triple = "x86_64-pc-linux-gnu"

%struct._zval_struct = type { %union._zend_value, %union.anon, %union.anon.2 }
%union._zend_value = type { i64 }
%union.anon = type { i32 }
%union.anon.2 = type { i32 }
%struct._zend_array = type { %struct._zend_refcounted_h, %union.anon.4, i32, %union.anon.6, i32, i32, i32, i32, i64, ptr }
%struct._zend_refcounted_h = type { i32, %union.anon.3 }
%union.anon.3 = type { i32 }
%union.anon.4 = type { i32 }
%union.anon.6 = type { ptr }
%struct._zend_reference = type { %struct._zend_refcounted_h, %struct._zval_struct, %union.zend_property_info_source_list }
%union.zend_property_info_source_list = type { ptr }
%struct.anon.0 = type { i8, i8, %union.anon.1 }
%union.anon.1 = type { i16 }
%struct._zend_object = type { %struct._zend_refcounted_h, i32, i32, ptr, ptr, ptr, [1 x %struct._zval_struct] }
%struct._zend_class_entry = type { i8, ptr, %union.anon.8, i32, i32, i32, i32, ptr, ptr, ptr, %struct._zend_array, %struct._zend_array, %struct._zend_array, ptr, ptr, ptr, ptr, ptr, ptr, ptr, ptr, ptr, ptr, ptr, ptr, ptr, ptr, ptr, ptr, ptr, ptr, ptr, %union.anon.9, ptr, ptr, ptr, ptr, i32, i32, i32, i32, %union.anon.10, ptr, ptr, ptr, ptr, i32, ptr, ptr, %union.anon.11 }
%union.anon.8 = type { ptr }
%union.anon.9 = type { ptr }
%union.anon.10 = type { ptr }
%union.anon.11 = type { %struct.anon.12 }
%struct.anon.12 = type { ptr, i32, i32 }
%struct._Bucket = type { %struct._zval_struct, i64, ptr }

; Function Attrs: alwaysinline nounwind uwtable
define internal zeroext i8 @zval_get_type(ptr noundef %0) #5 {
  %2 = alloca ptr, align 8
  store ptr %0, ptr %2, align 8, !tbaa !13
  %3 = load ptr, ptr %2, align 8, !tbaa !13
  %4 = getelementptr inbounds nuw %struct._zval_struct, ptr %3, i32 0, i32 1
  %5 = getelementptr inbounds nuw %struct.anon.0, ptr %4, i32 0, i32 0
  %6 = load i8, ptr %5, align 8, !tbaa !17
  ret i8 %6
}

; Function Attrs: alwaysinline nounwind uwtable
define internal i32 @php_array_data_compare_unstable_i(ptr noundef %0, ptr noundef %1) #5 {
  %3 = alloca i32, align 4
  %4 = alloca ptr, align 8
  %5 = alloca ptr, align 8
  %6 = alloca i32, align 4
  %7 = alloca ptr, align 8
  %8 = alloca ptr, align 8
  %9 = alloca i64, align 8
  %10 = alloca i64, align 8
  %11 = alloca i32, align 4
  store ptr %0, ptr %4, align 8, !tbaa !85
  store ptr %1, ptr %5, align 8, !tbaa !85
  call void @llvm.lifetime.start.p0(i64 4, ptr %6) #17
  %12 = load ptr, ptr %4, align 8, !tbaa !85
  %13 = getelementptr inbounds nuw %struct._Bucket, ptr %12, i32 0, i32 0
  %14 = load ptr, ptr %5, align 8, !tbaa !85
  %15 = getelementptr inbounds nuw %struct._Bucket, ptr %14, i32 0, i32 0
  %16 = call i32 @zend_compare(ptr noundef %13, ptr noundef %15)
  store i32 %16, ptr %6, align 4, !tbaa !4
  call void @llvm.lifetime.start.p0(i64 8, ptr %7) #17
  %17 = load ptr, ptr %5, align 8, !tbaa !85
  %18 = getelementptr inbounds nuw %struct._Bucket, ptr %17, i32 0, i32 0
  store ptr %18, ptr %7, align 8, !tbaa !13
  br label %19

19:                                               ; preds = %2
  %20 = load ptr, ptr %7, align 8, !tbaa !13
  %21 = call zeroext i8 @zval_get_type(ptr noundef %20)
  %22 = zext i8 %21 to i32
  %23 = icmp eq i32 %22, 10
  %24 = xor i1 %23, true
  %25 = xor i1 %24, true
  %26 = zext i1 %25 to i32
  %27 = sext i32 %26 to i64
  %28 = call i64 @llvm.expect.i64(i64 %27, i64 0)
  %29 = icmp ne i64 %28, 0
  br i1 %29, label %30, label %35

30:                                               ; preds = %19
  %31 = load ptr, ptr %7, align 8, !tbaa !13
  %32 = getelementptr inbounds nuw %struct._zval_struct, ptr %31, i32 0, i32 0
  %33 = load ptr, ptr %32, align 8, !tbaa !17
  %34 = getelementptr inbounds nuw %struct._zend_reference, ptr %33, i32 0, i32 1
  store ptr %34, ptr %7, align 8, !tbaa !13
  br label %35

35:                                               ; preds = %30, %19
  br label %36

36:                                               ; preds = %35
  br label %37

37:                                               ; preds = %36
  %38 = load ptr, ptr %7, align 8, !tbaa !13
  %39 = call zeroext i8 @zval_get_type(ptr noundef %38)
  %40 = zext i8 %39 to i32
  %41 = icmp eq i32 %40, 8
  %42 = xor i1 %41, true
  %43 = xor i1 %42, true
  %44 = zext i1 %43 to i32
  %45 = sext i32 %44 to i64
  %46 = call i64 @llvm.expect.i64(i64 %45, i64 0)
  %47 = icmp ne i64 %46, 0
  br i1 %47, label %48, label %119

48:                                               ; preds = %37
  %49 = load i32, ptr %6, align 4, !tbaa !4
  %50 = icmp eq i32 %49, 1
  br i1 %50, label %51, label %119

51:                                               ; preds = %48
  %52 = load ptr, ptr %7, align 8, !tbaa !13
  %53 = getelementptr inbounds nuw %struct._zval_struct, ptr %52, i32 0, i32 0
  %54 = load ptr, ptr %53, align 8, !tbaa !17
  %55 = getelementptr inbounds nuw %struct._zend_object, ptr %54, i32 0, i32 3
  %56 = load ptr, ptr %55, align 8, !tbaa !72
  %57 = getelementptr inbounds nuw %struct._zend_class_entry, ptr %56, i32 0, i32 4
  %58 = load i32, ptr %57, align 4, !tbaa !156
  %59 = and i32 %58, 268435456
  %60 = icmp ne i32 %59, 0
  br i1 %60, label %61, label %119

61:                                               ; preds = %51
  call void @llvm.lifetime.start.p0(i64 8, ptr %8) #17
  %62 = load ptr, ptr %4, align 8, !tbaa !85
  %63 = getelementptr inbounds nuw %struct._Bucket, ptr %62, i32 0, i32 0
  store ptr %63, ptr %8, align 8, !tbaa !13
  br label %64

64:                                               ; preds = %61
  %65 = load ptr, ptr %8, align 8, !tbaa !13
  %66 = call zeroext i8 @zval_get_type(ptr noundef %65)
  %67 = zext i8 %66 to i32
  %68 = icmp eq i32 %67, 10
  %69 = xor i1 %68, true
  %70 = xor i1 %69, true
  %71 = zext i1 %70 to i32
  %72 = sext i32 %71 to i64
  %73 = call i64 @llvm.expect.i64(i64 %72, i64 0)
  %74 = icmp ne i64 %73, 0
  br i1 %74, label %75, label %80

75:                                               ; preds = %64
  %76 = load ptr, ptr %8, align 8, !tbaa !13
  %77 = getelementptr inbounds nuw %struct._zval_struct, ptr %76, i32 0, i32 0
  %78 = load ptr, ptr %77, align 8, !tbaa !17
  %79 = getelementptr inbounds nuw %struct._zend_reference, ptr %78, i32 0, i32 1
  store ptr %79, ptr %8, align 8, !tbaa !13
  br label %80

80:                                               ; preds = %75, %64
  br label %81

81:                                               ; preds = %80
  br label %82

82:                                               ; preds = %81
  %83 = load ptr, ptr %8, align 8, !tbaa !13
  %84 = call zeroext i8 @zval_get_type(ptr noundef %83)
  %85 = zext i8 %84 to i32
  %86 = icmp eq i32 %85, 8
  br i1 %86, label %87, label %117

87:                                               ; preds = %82
  %88 = load ptr, ptr %8, align 8, !tbaa !13
  %89 = getelementptr inbounds nuw %struct._zval_struct, ptr %88, i32 0, i32 0
  %90 = load ptr, ptr %89, align 8, !tbaa !17
  %91 = getelementptr inbounds nuw %struct._zend_object, ptr %90, i32 0, i32 3
  %92 = load ptr, ptr %91, align 8, !tbaa !72
  %93 = getelementptr inbounds nuw %struct._zend_class_entry, ptr %92, i32 0, i32 4
  %94 = load i32, ptr %93, align 4, !tbaa !156
  %95 = and i32 %94, 268435456
  %96 = icmp ne i32 %95, 0
  br i1 %96, label %97, label %117

97:                                               ; preds = %87
  call void @llvm.lifetime.start.p0(i64 8, ptr %9) #17
  %98 = load ptr, ptr %8, align 8, !tbaa !13
  %99 = getelementptr inbounds nuw %struct._zval_struct, ptr %98, i32 0, i32 0
  %100 = load ptr, ptr %99, align 8, !tbaa !17
  %101 = ptrtoint ptr %100 to i64
  store i64 %101, ptr %9, align 8, !tbaa !15
  call void @llvm.lifetime.start.p0(i64 8, ptr %10) #17
  %102 = load ptr, ptr %7, align 8, !tbaa !13
  %103 = getelementptr inbounds nuw %struct._zval_struct, ptr %102, i32 0, i32 0
  %104 = load ptr, ptr %103, align 8, !tbaa !17
  %105 = ptrtoint ptr %104 to i64
  store i64 %105, ptr %10, align 8, !tbaa !15
  %106 = load i64, ptr %9, align 8, !tbaa !15
  %107 = load i64, ptr %10, align 8, !tbaa !15
  %108 = icmp eq i64 %106, %107
  br i1 %108, label %109, label %110

109:                                              ; preds = %97
  br label %115

110:                                              ; preds = %97
  %111 = load i64, ptr %9, align 8, !tbaa !15
  %112 = load i64, ptr %10, align 8, !tbaa !15
  %113 = icmp ult i64 %111, %112
  %114 = select i1 %113, i32 -1, i32 1
  br label %115

115:                                              ; preds = %110, %109
  %116 = phi i32 [ 0, %109 ], [ %114, %110 ]
  store i32 %116, ptr %3, align 4
  store i32 1, ptr %11, align 4
  call void @llvm.lifetime.end.p0(i64 8, ptr %10) #17
  call void @llvm.lifetime.end.p0(i64 8, ptr %9) #17
  br label %118

117:                                              ; preds = %87, %82
  store i32 -1, ptr %3, align 4
  store i32 1, ptr %11, align 4
  br label %118

118:                                              ; preds = %117, %115
  call void @llvm.lifetime.end.p0(i64 8, ptr %8) #17
  br label %121

119:                                              ; preds = %51, %48, %37
  %120 = load i32, ptr %6, align 4, !tbaa !4
  store i32 %120, ptr %3, align 4
  store i32 1, ptr %11, align 4
  br label %121

121:                                              ; preds = %119, %118
  call void @llvm.lifetime.end.p0(i64 8, ptr %7) #17
  call void @llvm.lifetime.end.p0(i64 4, ptr %6) #17
  %122 = load i32, ptr %3, align 4
  ret i32 %122
}

; Function Attrs: noinline nounwind uwtable
define internal i32 @php_array_data_compare(ptr noundef %0, ptr noundef %1) #14 {
  %3 = alloca i32, align 4
  %4 = alloca ptr, align 8
  %5 = alloca ptr, align 8
  %6 = alloca i32, align 4
  %7 = alloca i32, align 4
  store ptr %0, ptr %4, align 8, !tbaa !85
  store ptr %1, ptr %5, align 8, !tbaa !85
  br label %8

8:                                                ; preds = %2
  call void @llvm.lifetime.start.p0(i64 4, ptr %6) #17
  %9 = load ptr, ptr %4, align 8, !tbaa !85
  %10 = load ptr, ptr %5, align 8, !tbaa !85
  %11 = call i32 @php_array_data_compare_unstable_i(ptr noundef %9, ptr noundef %10)
  store i32 %11, ptr %6, align 4, !tbaa !4
  %12 = load i32, ptr %6, align 4, !tbaa !4
  %13 = icmp ne i32 %12, 0
  %14 = xor i1 %13, true
  %15 = xor i1 %14, true
  %16 = zext i1 %15 to i32
  %17 = sext i32 %16 to i64
  %18 = call i64 @llvm.expect.i64(i64 %17, i64 1)
  %19 = icmp ne i64 %18, 0
  br i1 %19, label %20, label %22

20:                                               ; preds = %8
  %21 = load i32, ptr %6, align 4, !tbaa !4
  store i32 %21, ptr %3, align 4
  store i32 1, ptr %7, align 4
  br label %26

22:                                               ; preds = %8
  %23 = load ptr, ptr %4, align 8, !tbaa !85
  %24 = load ptr, ptr %5, align 8, !tbaa !85
  %25 = call i32 @stable_sort_fallback(ptr noundef %23, ptr noundef %24)
  store i32 %25, ptr %3, align 4
  store i32 1, ptr %7, align 4
  br label %26

26:                                               ; preds = %22, %20
  call void @llvm.lifetime.end.p0(i64 4, ptr %6) #17
  br label %27

27:                                               ; preds = %26
  %28 = load i32, ptr %3, align 4
  ret i32 %28
}