; Function Attrs: noinline nounwind uwtable
define internal i32 @php_array_data_compare(ptr noundef %0, ptr noundef %1) #16 {
  %3 = tail call i32 @zend_compare(ptr noundef %0, ptr noundef %1) #21
  %4 = getelementptr inbounds nuw i8, ptr %1, i64 8
  %5 = load i8, ptr %4, align 8, !tbaa !8
  %6 = icmp eq i8 %5, 10
  br i1 %6, label %7, label %10, !prof !14

7:                                                ; preds = %2
  %8 = load ptr, ptr %1, align 8, !tbaa !8
  %9 = getelementptr inbounds nuw i8, ptr %8, i64 8
  %.phi.trans.insert = getelementptr inbounds nuw i8, ptr %8, i64 16
  %.pre = load i8, ptr %.phi.trans.insert, align 8, !tbaa !8
  br label %10

10:                                               ; preds = %7, %2
  %11 = phi i8 [ %.pre, %7 ], [ %5, %2 ]
  %.020.i = phi ptr [ %9, %7 ], [ %1, %2 ]
  %12 = icmp eq i8 %11, 8
  br i1 %12, label %13, label %php_array_data_compare_unstable_i.exit, !prof !14

13:                                               ; preds = %10
  switch i32 %3, label %php_array_data_compare_unstable_i.exit.thread [
    i32 1, label %14
    i32 0, label %php_array_data_compare_unstable_i.exit.thread10
  ], !prof !160

14:                                               ; preds = %13
  %15 = load ptr, ptr %.020.i, align 8, !tbaa !8
  %16 = getelementptr inbounds nuw i8, ptr %15, i64 16
  %17 = load ptr, ptr %16, align 8, !tbaa !57
  %18 = getelementptr inbounds nuw i8, ptr %17, i64 28
  %19 = load i32, ptr %18, align 4, !tbaa !161
  %20 = and i32 %19, 268435456
  %.not.i = icmp eq i32 %20, 0
  br i1 %.not.i, label %php_array_data_compare_unstable_i.exit.thread, label %21

21:                                               ; preds = %14
  %22 = getelementptr inbounds nuw i8, ptr %0, i64 8
  %23 = load i8, ptr %22, align 8, !tbaa !8
  %24 = icmp eq i8 %23, 10
  br i1 %24, label %25, label %28, !prof !14

25:                                               ; preds = %21
  %26 = load ptr, ptr %0, align 8, !tbaa !8
  %27 = getelementptr inbounds nuw i8, ptr %26, i64 8
  %.phi.trans.insert13 = getelementptr inbounds nuw i8, ptr %26, i64 16
  %.pre14 = load i8, ptr %.phi.trans.insert13, align 8, !tbaa !8
  br label %28

28:                                               ; preds = %25, %21
  %29 = phi i8 [ %.pre14, %25 ], [ %23, %21 ]
  %.021.i = phi ptr [ %27, %25 ], [ %0, %21 ]
  %30 = icmp eq i8 %29, 8
  br i1 %30, label %31, label %php_array_data_compare_unstable_i.exit.thread

31:                                               ; preds = %28
  %32 = load ptr, ptr %.021.i, align 8, !tbaa !8
  %33 = getelementptr inbounds nuw i8, ptr %32, i64 16
  %34 = load ptr, ptr %33, align 8, !tbaa !57
  %35 = getelementptr inbounds nuw i8, ptr %34, i64 28
  %36 = load i32, ptr %35, align 4, !tbaa !161
  %37 = and i32 %36, 268435456
  %.not22.i = icmp eq i32 %37, 0
  br i1 %.not22.i, label %php_array_data_compare_unstable_i.exit.thread, label %38

38:                                               ; preds = %31
  %39 = icmp eq ptr %32, %15
  %40 = icmp ult ptr %32, %15
  %41 = select i1 %40, i32 -1, i32 1
  br i1 %39, label %php_array_data_compare_unstable_i.exit.thread10, label %php_array_data_compare_unstable_i.exit.thread

php_array_data_compare_unstable_i.exit:           ; preds = %10
  %.not = icmp eq i32 %3, 0
  br i1 %.not, label %php_array_data_compare_unstable_i.exit.thread10, label %php_array_data_compare_unstable_i.exit.thread, !prof !162

php_array_data_compare_unstable_i.exit.thread10:  ; preds = %13, %38, %php_array_data_compare_unstable_i.exit
  %42 = getelementptr i8, ptr %0, i64 12
  %.val = load i32, ptr %42, align 4, !tbaa !8
  %43 = getelementptr i8, ptr %1, i64 12
  %.val7 = load i32, ptr %43, align 4, !tbaa !8
  %44 = tail call fastcc i32 @stable_sort_fallback(i32 %.val, i32 %.val7)
  br label %php_array_data_compare_unstable_i.exit.thread

php_array_data_compare_unstable_i.exit.thread:    ; preds = %13, %14, %28, %31, %38, %php_array_data_compare_unstable_i.exit, %php_array_data_compare_unstable_i.exit.thread10
  %.0 = phi i32 [ %44, %php_array_data_compare_unstable_i.exit.thread10 ], [ %3, %php_array_data_compare_unstable_i.exit ], [ 1, %14 ], [ -1, %28 ], [ -1, %31 ], [ %41, %38 ], [ %3, %13 ]
  ret i32 %.0
}